target datalayout = "e-m:e-p270:32:32-p271:32:32-p272:64:64-i64:64-i128:128-f80:128-n8:16:32:64-S128"
target triple = "x86_64-pc-linux-gnu"

%struct.quic_rstream_st = type { %struct.sframe_list_st, ptr, ptr, %struct.uint_range_st, %struct.ring_buf }
%struct.sframe_list_st = type { ptr, ptr, i32, i64, i64, i32, i32 }
%struct.uint_range_st = type { i64, i64 }
%struct.ring_buf = type { ptr, i64, i64, i64 }

@.str = private unnamed_addr constant [35 x i8] c"../openssl/ssl/quic/quic_rstream.c\00", align 1

; Function Attrs: inlinehint nounwind uwtable
define internal i32 @ring_buf_init(ptr noundef %0) #3 {
  %2 = alloca ptr, align 8
  store ptr %0, ptr %2, align 8, !tbaa !22
  %3 = load ptr, ptr %2, align 8, !tbaa !22
  %4 = getelementptr inbounds nuw %struct.ring_buf, ptr %3, i32 0, i32 0
  store ptr null, ptr %4, align 8, !tbaa !24
  %5 = load ptr, ptr %2, align 8, !tbaa !22
  %6 = getelementptr inbounds nuw %struct.ring_buf, ptr %5, i32 0, i32 1
  store i64 0, ptr %6, align 8, !tbaa !25
  %7 = load ptr, ptr %2, align 8, !tbaa !22
  %8 = getelementptr inbounds nuw %struct.ring_buf, ptr %7, i32 0, i32 3
  store i64 0, ptr %8, align 8, !tbaa !26
  %9 = load ptr, ptr %2, align 8, !tbaa !22
  %10 = getelementptr inbounds nuw %struct.ring_buf, ptr %9, i32 0, i32 2
  store i64 0, ptr %10, align 8, !tbaa !27
  ret i32 1
}

; Function Attrs: nounwind uwtable
define ptr @ossl_quic_rstream_new(ptr noundef %0, ptr noundef %1, i64 noundef %2) #0 {
  %4 = alloca ptr, align 8
  %5 = alloca ptr, align 8
  %6 = alloca ptr, align 8
  %7 = alloca i64, align 8
  %8 = alloca ptr, align 8
  %9 = alloca i32, align 4
  store ptr %0, ptr %5, align 8, !tbaa !3
  store ptr %1, ptr %6, align 8, !tbaa !8
  store i64 %2, ptr %7, align 8, !tbaa !10
  call void @llvm.lifetime.start.p0(i64 8, ptr %8) #8
  %10 = call noalias ptr @CRYPTO_zalloc(i64 noundef 112, ptr noundef @.str, i32 noundef 27)
  store ptr %10, ptr %8, align 8, !tbaa !12
  %11 = load ptr, ptr %8, align 8, !tbaa !12
  %12 = icmp eq ptr %11, null
  br i1 %12, label %13, label %14

13:                                               ; preds = %3
  store ptr null, ptr %4, align 8
  store i32 1, ptr %9, align 4
  br label %35

14:                                               ; preds = %3
  %15 = load ptr, ptr %8, align 8, !tbaa !12
  %16 = getelementptr inbounds nuw %struct.quic_rstream_st, ptr %15, i32 0, i32 4
  %17 = call i32 @ring_buf_init(ptr noundef %16)
  %18 = load ptr, ptr %8, align 8, !tbaa !12
  %19 = getelementptr inbounds nuw %struct.quic_rstream_st, ptr %18, i32 0, i32 4
  %20 = load i64, ptr %7, align 8, !tbaa !10
  %21 = call i32 @ring_buf_resize(ptr noundef %19, i64 noundef %20, i32 noundef 0)
  %22 = icmp ne i32 %21, 0
  br i1 %22, label %25, label %23

23:                                               ; preds = %14
  %24 = load ptr, ptr %8, align 8, !tbaa !12
  call void @CRYPTO_free(ptr noundef %24, ptr noundef @.str, i32 noundef 34)
  store ptr null, ptr %4, align 8
  store i32 1, ptr %9, align 4
  br label %35

25:                                               ; preds = %14
  %26 = load ptr, ptr %8, align 8, !tbaa !12
  %27 = getelementptr inbounds nuw %struct.quic_rstream_st, ptr %26, i32 0, i32 0
  call void @ossl_sframe_list_init(ptr noundef %27)
  %28 = load ptr, ptr %5, align 8, !tbaa !3
  %29 = load ptr, ptr %8, align 8, !tbaa !12
  %30 = getelementptr inbounds nuw %struct.quic_rstream_st, ptr %29, i32 0, i32 1
  store ptr %28, ptr %30, align 8, !tbaa !14
  %31 = load ptr, ptr %6, align 8, !tbaa !8
  %32 = load ptr, ptr %8, align 8, !tbaa !12
  %33 = getelementptr inbounds nuw %struct.quic_rstream_st, ptr %32, i32 0, i32 2
  store ptr %31, ptr %33, align 8, !tbaa !21
  %34 = load ptr, ptr %8, align 8, !tbaa !12
  store ptr %34, ptr %4, align 8
  store i32 1, ptr %9, align 4
  br label %35

35:                                               ; preds = %25, %23, %13
  call void @llvm.lifetime.end.p0(i64 8, ptr %8) #8
  %36 = load ptr, ptr %4, align 8
  ret ptr %36
}