; Function Attrs: nounwind uwtable
define ptr @ossl_quic_rstream_new(ptr noundef %0, ptr noundef %1, i64 noundef %2) local_unnamed_addr #0 {
  %4 = tail call noalias ptr @CRYPTO_zalloc(i64 noundef 112, ptr noundef nonnull @.str, i32 noundef 27) #10
  %5 = icmp eq ptr %4, null
  br i1 %5, label %13, label %6

6:                                                ; preds = %3
  %7 = getelementptr inbounds nuw i8, ptr %4, i64 80
  tail call void @llvm.memset.p0.i64(ptr noundef nonnull align 8 dereferenceable(32) %7, i8 0, i64 32, i1 false)
  %8 = tail call fastcc i32 @ring_buf_resize(ptr noundef nonnull %7, i64 noundef %2, i32 noundef 0)
  %.not = icmp eq i32 %8, 0
  br i1 %.not, label %9, label %10

9:                                                ; preds = %6
  tail call void @CRYPTO_free(ptr noundef nonnull %4, ptr noundef nonnull @.str, i32 noundef 34) #10
  br label %13

10:                                               ; preds = %6
  tail call void @ossl_sframe_list_init(ptr noundef nonnull %4) #10
  %11 = getelementptr inbounds nuw i8, ptr %4, i64 48
  store ptr %0, ptr %11, align 8, !tbaa !3
  %12 = getelementptr inbounds nuw i8, ptr %4, i64 56
  store ptr %1, ptr %12, align 8, !tbaa !16
  br label %13

13:                                               ; preds = %3, %10, %9
  %.0 = phi ptr [ %4, %10 ], [ null, %9 ], [ null, %3 ]
  ret ptr %.0
}